(lp0
(dp1
S'reading strategy'
p2
(lp3
sS'group'
p4
S''
p5
sS'name'
p6
S'Jaayden'
p7
sS'words'
p8
(lp9
sS'review words'
p10
(lp11
sa(dp12
S'reading strategy'
p13
(lp14
sS'group'
p15
g5
sS'name'
p16
S'Johnny'
p17
sS'review words'
p18
(lp19
sS'books'
p20
(lp21
sS'words'
p22
(lp23
sa(dp24
S'review words'
p25
(lp26
sS'group'
p27
g5
sS'name'
p28
S'Big Boi'
p29
sS'reading strategy'
p30
(lp31
sS'books'
p32
(lp33
sS'words'
p34
(lp35
sa.